target datalayout = "e-m:e-p270:32:32-p271:32:32-p272:64:64-i64:64-i128:128-f80:128-n8:16:32:64-S128"
target triple = "x86_64-pc-linux-gnu"

%struct.strbuf = type { i64, i64, ptr }

@strbuf_slopbuf = external global [0 x i8], align 1
@.str.58 = private unnamed_addr constant [11 x i8] c"./strbuf.h\00", align 1
@.str.59 = private unnamed_addr constant [30 x i8] c"strbuf_setlen() beyond buffer\00", align 1
@junk_pid = internal global i32 0, align 4
@junk_git_dir = internal global ptr null, align 8
@is_junk = internal global i32 0, align 4
@junk_work_tree = internal global ptr null, align 8
@__const.remove_junk.sb = private unnamed_addr constant %struct.strbuf { i64 0, i64 0, ptr @strbuf_slopbuf }, align 8

; Function Attrs: inlinehint nounwind uwtable
define internal void @strbuf_setlen(ptr noundef %0, i64 noundef %1) #3 {
  %3 = alloca ptr, align 8
  %4 = alloca i64, align 8
  store ptr %0, ptr %3, align 8, !tbaa !92
  store i64 %1, ptr %4, align 8, !tbaa !60
  %5 = load i64, ptr %4, align 8, !tbaa !60
  %6 = load ptr, ptr %3, align 8, !tbaa !92
  %7 = getelementptr inbounds nuw %struct.strbuf, ptr %6, i32 0, i32 0
  %8 = load i64, ptr %7, align 8, !tbaa !96
  %9 = icmp ne i64 %8, 0
  br i1 %9, label %10, label %15

10:                                               ; preds = %2
  %11 = load ptr, ptr %3, align 8, !tbaa !92
  %12 = getelementptr inbounds nuw %struct.strbuf, ptr %11, i32 0, i32 0
  %13 = load i64, ptr %12, align 8, !tbaa !96
  %14 = sub i64 %13, 1
  br label %16

15:                                               ; preds = %2
  br label %16

16:                                               ; preds = %15, %10
  %17 = phi i64 [ %14, %10 ], [ 0, %15 ]
  %18 = icmp ugt i64 %5, %17
  br i1 %18, label %19, label %20

19:                                               ; preds = %16
  call void (ptr, i32, ptr, ...) @BUG_fl(ptr noundef @.str.58, i32 noundef 167, ptr noundef @.str.59) #12
  unreachable

20:                                               ; preds = %16
  %21 = load i64, ptr %4, align 8, !tbaa !60
  %22 = load ptr, ptr %3, align 8, !tbaa !92
  %23 = getelementptr inbounds nuw %struct.strbuf, ptr %22, i32 0, i32 1
  store i64 %21, ptr %23, align 8, !tbaa !83
  %24 = load ptr, ptr %3, align 8, !tbaa !92
  %25 = getelementptr inbounds nuw %struct.strbuf, ptr %24, i32 0, i32 2
  %26 = load ptr, ptr %25, align 8, !tbaa !55
  %27 = icmp ne ptr %26, @strbuf_slopbuf
  br i1 %27, label %28, label %34

28:                                               ; preds = %20
  %29 = load ptr, ptr %3, align 8, !tbaa !92
  %30 = getelementptr inbounds nuw %struct.strbuf, ptr %29, i32 0, i32 2
  %31 = load ptr, ptr %30, align 8, !tbaa !55
  %32 = load i64, ptr %4, align 8, !tbaa !60
  %33 = getelementptr inbounds nuw i8, ptr %31, i64 %32
  store i8 0, ptr %33, align 1, !tbaa !67
  br label %35

34:                                               ; preds = %20
  br label %35

35:                                               ; preds = %34, %28
  ret void
}

; Function Attrs: inlinehint nounwind uwtable
define internal void @strbuf_addstr(ptr noundef %0, ptr noundef %1) #3 {
  %3 = alloca ptr, align 8
  %4 = alloca ptr, align 8
  store ptr %0, ptr %3, align 8, !tbaa !92
  store ptr %1, ptr %4, align 8, !tbaa !11
  %5 = load ptr, ptr %3, align 8, !tbaa !92
  %6 = load ptr, ptr %4, align 8, !tbaa !11
  %7 = load ptr, ptr %4, align 8, !tbaa !11
  %8 = call i64 @strlen(ptr noundef %7) #13
  call void @strbuf_add(ptr noundef %5, ptr noundef %6, i64 noundef %8)
  ret void
}

; Function Attrs: nounwind uwtable
define internal void @remove_junk() #0 {
  %1 = alloca %struct.strbuf, align 8
  %2 = alloca i32, align 4
  call void @llvm.lifetime.start.p0(i64 24, ptr %1) #11
  call void @llvm.memcpy.p0.p0.i64(ptr align 8 %1, ptr align 8 @__const.remove_junk.sb, i64 24, i1 false)
  %3 = load i32, ptr @is_junk, align 4, !tbaa !4
  %4 = icmp ne i32 %3, 0
  br i1 %4, label %5, label %9

5:                                                ; preds = %0
  %6 = call i32 @getpid() #11
  %7 = load i32, ptr @junk_pid, align 4, !tbaa !4
  %8 = icmp ne i32 %6, %7
  br i1 %8, label %9, label %10

9:                                                ; preds = %5, %0
  store i32 1, ptr %2, align 4
  br label %23

10:                                               ; preds = %5
  %11 = load ptr, ptr @junk_git_dir, align 8, !tbaa !11
  %12 = icmp ne ptr %11, null
  br i1 %12, label %13, label %16

13:                                               ; preds = %10
  %14 = load ptr, ptr @junk_git_dir, align 8, !tbaa !11
  call void @strbuf_addstr(ptr noundef %1, ptr noundef %14)
  %15 = call i32 @remove_dir_recursively(ptr noundef %1, i32 noundef 0)
  call void @strbuf_setlen(ptr noundef %1, i64 noundef 0)
  br label %16

16:                                               ; preds = %13, %10
  %17 = load ptr, ptr @junk_work_tree, align 8, !tbaa !11
  %18 = icmp ne ptr %17, null
  br i1 %18, label %19, label %22

19:                                               ; preds = %16
  %20 = load ptr, ptr @junk_work_tree, align 8, !tbaa !11
  call void @strbuf_addstr(ptr noundef %1, ptr noundef %20)
  %21 = call i32 @remove_dir_recursively(ptr noundef %1, i32 noundef 0)
  br label %22

22:                                               ; preds = %19, %16
  call void @strbuf_release(ptr noundef %1)
  store i32 0, ptr %2, align 4
  br label %23

23:                                               ; preds = %22, %9
  call void @llvm.lifetime.end.p0(i64 24, ptr %1) #11
  %24 = load i32, ptr %2, align 4
  switch i32 %24, label %26 [
    i32 0, label %25
    i32 1, label %25
  ]

25:                                               ; preds = %23, %23
  ret void

26:                                               ; preds = %23
  unreachable
}