; Function Attrs: nounwind uwtable
define internal void @remove_junk() #0 {
  %1 = alloca %struct.strbuf, align 8
  call void @llvm.lifetime.start.p0(i64 24, ptr nonnull %1) #18
  call void @llvm.memcpy.p0.p0.i64(ptr noundef nonnull align 8 dereferenceable(24) %1, ptr noundef nonnull align 8 dereferenceable(24) @__const.delete_git_work_tree.sb, i64 24, i1 false)
  %.b = load i1, ptr @is_junk, align 4
  br i1 %.b, label %2, label %19

2:                                                ; preds = %0
  %3 = tail call i32 @getpid() #18
  %4 = load i32, ptr @junk_pid, align 4, !tbaa !38
  %.not = icmp eq i32 %3, %4
  br i1 %.not, label %5, label %19

5:                                                ; preds = %2
  %6 = load ptr, ptr @junk_git_dir, align 8, !tbaa !37
  %.not2 = icmp eq ptr %6, null
  br i1 %.not2, label %strbuf_setlen.exit, label %7

7:                                                ; preds = %5
  %8 = tail call i64 @strlen(ptr noundef nonnull dereferenceable(1) %6) #20
  call void @strbuf_add(ptr noundef nonnull %1, ptr noundef nonnull %6, i64 noundef %8) #18
  %9 = call i32 @remove_dir_recursively(ptr noundef nonnull %1, i32 noundef 0) #18
  %10 = getelementptr inbounds nuw i8, ptr %1, i64 8
  store i64 0, ptr %10, align 8, !tbaa !60
  %11 = getelementptr inbounds nuw i8, ptr %1, i64 16
  %12 = load ptr, ptr %11, align 8, !tbaa !50
  %.not9.i = icmp eq ptr %12, @strbuf_slopbuf
  br i1 %.not9.i, label %strbuf_setlen.exit, label %13

13:                                               ; preds = %7
  store i8 0, ptr %12, align 1, !tbaa !53
  br label %strbuf_setlen.exit

strbuf_setlen.exit:                               ; preds = %13, %7, %5
  %14 = load ptr, ptr @junk_work_tree, align 8, !tbaa !37
  %.not3 = icmp eq ptr %14, null
  br i1 %.not3, label %18, label %15

15:                                               ; preds = %strbuf_setlen.exit
  %16 = call i64 @strlen(ptr noundef nonnull dereferenceable(1) %14) #20
  call void @strbuf_add(ptr noundef nonnull %1, ptr noundef nonnull %14, i64 noundef %16) #18
  %17 = call i32 @remove_dir_recursively(ptr noundef nonnull %1, i32 noundef 0) #18
  br label %18

18:                                               ; preds = %15, %strbuf_setlen.exit
  call void @strbuf_release(ptr noundef nonnull %1) #18
  br label %19

19:                                               ; preds = %0, %2, %18
  call void @llvm.lifetime.end.p0(i64 24, ptr nonnull %1) #18
  ret void
}